target datalayout = "e-m:e-p270:32:32-p271:32:32-p272:64:64-i64:64-i128:128-f80:128-n8:16:32:64-S128"
target triple = "x86_64-pc-linux-gnu"

%"class.std::__cxx11::basic_string" = type { %"struct.std::__cxx11::basic_string<char>::_Alloc_hider", i64, %union.anon }
%"struct.std::__cxx11::basic_string<char>::_Alloc_hider" = type { ptr }
%union.anon = type { i64, [8 x i8] }

; Function Attrs: mustprogress nounwind uwtable
define available_externally noundef ptr @_ZNKSt7__cxx1112basic_stringIcSt11char_traitsIcESaIcEE7_M_dataEv(ptr noundef nonnull align 8 dereferenceable(32) %0) #0 align 2 {
  %2 = alloca ptr, align 8
  store ptr %0, ptr %2, align 8, !tbaa !25
  %3 = load ptr, ptr %2, align 8
  %4 = getelementptr inbounds nuw %"class.std::__cxx11::basic_string", ptr %3, i32 0, i32 0
  %5 = getelementptr inbounds nuw %"struct.std::__cxx11::basic_string<char>::_Alloc_hider", ptr %4, i32 0, i32 0
  %6 = load ptr, ptr %5, align 8, !tbaa !418
  ret ptr %6
}

; Function Attrs: mustprogress nounwind uwtable
define internal noundef i32 @_ZN2cvL9mapSymbolEc(i8 noundef signext %0) #0 {
  %2 = alloca i32, align 4
  %3 = alloca i8, align 1
  store i8 %0, ptr %3, align 1, !tbaa !83
  %4 = load i8, ptr %3, align 1, !tbaa !83
  %5 = sext i8 %4 to i32
  %6 = icmp sge i32 %5, 48
  br i1 %6, label %7, label %15

7:                                                ; preds = %1
  %8 = load i8, ptr %3, align 1, !tbaa !83
  %9 = sext i8 %8 to i32
  %10 = icmp sle i32 %9, 57
  br i1 %10, label %11, label %15

11:                                               ; preds = %7
  %12 = load i8, ptr %3, align 1, !tbaa !83
  %13 = sext i8 %12 to i32
  %14 = sub nsw i32 %13, 48
  store i32 %14, ptr %2, align 4
  br label %41

15:                                               ; preds = %7, %1
  %16 = load i8, ptr %3, align 1, !tbaa !83
  %17 = sext i8 %16 to i32
  %18 = icmp sge i32 %17, 65
  br i1 %18, label %19, label %28

19:                                               ; preds = %15
  %20 = load i8, ptr %3, align 1, !tbaa !83
  %21 = sext i8 %20 to i32
  %22 = icmp sle i32 %21, 90
  br i1 %22, label %23, label %28

23:                                               ; preds = %19
  %24 = load i8, ptr %3, align 1, !tbaa !83
  %25 = sext i8 %24 to i32
  %26 = sub nsw i32 %25, 65
  %27 = add nsw i32 %26, 10
  store i32 %27, ptr %2, align 4
  br label %41

28:                                               ; preds = %19, %15
  %29 = load i8, ptr %3, align 1, !tbaa !83
  %30 = sext i8 %29 to i32
  switch i32 %30, label %40 [
    i32 32, label %31
    i32 36, label %32
    i32 37, label %33
    i32 42, label %34
    i32 43, label %35
    i32 45, label %36
    i32 46, label %37
    i32 47, label %38
    i32 58, label %39
  ]

31:                                               ; preds = %28
  store i32 36, ptr %2, align 4
  br label %41

32:                                               ; preds = %28
  store i32 37, ptr %2, align 4
  br label %41

33:                                               ; preds = %28
  store i32 38, ptr %2, align 4
  br label %41

34:                                               ; preds = %28
  store i32 39, ptr %2, align 4
  br label %41

35:                                               ; preds = %28
  store i32 40, ptr %2, align 4
  br label %41

36:                                               ; preds = %28
  store i32 41, ptr %2, align 4
  br label %41

37:                                               ; preds = %28
  store i32 42, ptr %2, align 4
  br label %41

38:                                               ; preds = %28
  store i32 43, ptr %2, align 4
  br label %41

39:                                               ; preds = %28
  store i32 44, ptr %2, align 4
  br label %41

40:                                               ; preds = %28
  store i32 -1, ptr %2, align 4
  br label %41

41:                                               ; preds = %40, %39, %38, %37, %36, %35, %34, %33, %32, %31, %23, %11
  %42 = load i32, ptr %2, align 4
  ret i32 %42
}

; Function Attrs: mustprogress nounwind uwtable
define available_externally noundef nonnull align 1 dereferenceable(1) ptr @_ZNKSt7__cxx1112basic_stringIcSt11char_traitsIcESaIcEEixEm(ptr noundef nonnull align 8 dereferenceable(32) %0, i64 noundef %1) #0 align 2 {
  %3 = alloca ptr, align 8
  %4 = alloca i64, align 8
  store ptr %0, ptr %3, align 8, !tbaa !25
  store i64 %1, ptr %4, align 8, !tbaa !82
  %5 = load ptr, ptr %3, align 8
  br label %6

6:                                                ; preds = %2
  br label %7

7:                                                ; preds = %6
  br label %8

8:                                                ; preds = %7
  %9 = call noundef ptr @_ZNKSt7__cxx1112basic_stringIcSt11char_traitsIcESaIcEE7_M_dataEv(ptr noundef nonnull align 8 dereferenceable(32) %5)
  %10 = load i64, ptr %4, align 8, !tbaa !82
  %11 = getelementptr inbounds nuw i8, ptr %9, i64 %10
  ret ptr %11
}

; Function Attrs: mustprogress nounwind uwtable
define available_externally noundef i64 @_ZNKSt7__cxx1112basic_stringIcSt11char_traitsIcESaIcEE6lengthEv(ptr noundef nonnull align 8 dereferenceable(32) %0) #0 align 2 {
  %2 = alloca ptr, align 8
  store ptr %0, ptr %2, align 8, !tbaa !25
  %3 = load ptr, ptr %2, align 8
  %4 = getelementptr inbounds nuw %"class.std::__cxx11::basic_string", ptr %3, i32 0, i32 1
  %5 = load i64, ptr %4, align 8, !tbaa !75
  ret i64 %5
}

; Function Attrs: mustprogress uwtable
define hidden noundef zeroext i1 @_ZNK2cv17QRCodeEncoderImpl14isAlphaNumericERKNSt7__cxx1112basic_stringIcSt11char_traitsIcESaIcEEE(ptr noundef nonnull align 8 dereferenceable(384) %0, ptr noundef nonnull align 8 dereferenceable(32) %1) #2 align 2 {
  %3 = alloca i1, align 1
  %4 = alloca ptr, align 8
  %5 = alloca ptr, align 8
  %6 = alloca i64, align 8
  %7 = alloca i32, align 4
  store ptr %0, ptr %4, align 8, !tbaa !20
  store ptr %1, ptr %5, align 8, !tbaa !25
  call void @llvm.lifetime.start.p0(i64 8, ptr %6) #21
  store i64 0, ptr %6, align 8, !tbaa !82
  br label %8

8:                                                ; preds = %23, %2
  %9 = load i64, ptr %6, align 8, !tbaa !82
  %10 = load ptr, ptr %5, align 8, !tbaa !25
  %11 = call noundef i64 @_ZNKSt7__cxx1112basic_stringIcSt11char_traitsIcESaIcEE6lengthEv(ptr noundef nonnull align 8 dereferenceable(32) %10) #21
  %12 = icmp ult i64 %9, %11
  br i1 %12, label %14, label %13

13:                                               ; preds = %8
  store i32 2, ptr %7, align 4
  br label %26

14:                                               ; preds = %8
  %15 = load ptr, ptr %5, align 8, !tbaa !25
  %16 = load i64, ptr %6, align 8, !tbaa !82
  %17 = call noundef nonnull align 1 dereferenceable(1) ptr @_ZNKSt7__cxx1112basic_stringIcSt11char_traitsIcESaIcEEixEm(ptr noundef nonnull align 8 dereferenceable(32) %15, i64 noundef %16) #21
  %18 = load i8, ptr %17, align 1, !tbaa !83
  %19 = call noundef i32 @_ZN2cvL9mapSymbolEc(i8 noundef signext %18)
  %20 = icmp eq i32 %19, -1
  br i1 %20, label %21, label %22

21:                                               ; preds = %14
  store i1 false, ptr %3, align 1
  store i32 1, ptr %7, align 4
  br label %26

22:                                               ; preds = %14
  br label %23

23:                                               ; preds = %22
  %24 = load i64, ptr %6, align 8, !tbaa !82
  %25 = add i64 %24, 1
  store i64 %25, ptr %6, align 8, !tbaa !82
  br label %8, !llvm.loop !136

26:                                               ; preds = %21, %13
  call void @llvm.lifetime.end.p0(i64 8, ptr %6) #21
  %27 = load i32, ptr %7, align 4
  switch i32 %27, label %31 [
    i32 2, label %28
    i32 1, label %29
  ]

28:                                               ; preds = %26
  store i1 true, ptr %3, align 1
  br label %29

29:                                               ; preds = %28, %26
  %30 = load i1, ptr %3, align 1
  ret i1 %30

31:                                               ; preds = %26
  unreachable
}