; Function Attrs: mustprogress nofree norecurse nosync nounwind willreturn memory(read, inaccessiblemem: none) uwtable
define hidden noundef zeroext i1 @_ZNK2cv17QRCodeEncoderImpl14isAlphaNumericERKNSt7__cxx1112basic_stringIcSt11char_traitsIcESaIcEEE(ptr noundef nonnull readnone align 8 captures(none) dereferenceable(384) %0, ptr noundef nonnull readonly align 8 captures(none) dereferenceable(32) %1) local_unnamed_addr #7 align 2 {
  %3 = getelementptr inbounds nuw i8, ptr %1, i64 8
  %4 = load i64, ptr %3, align 8, !tbaa !21
  %.not = icmp eq i64 %4, 0
  br i1 %.not, label %_ZN2cvL9mapSymbolEc.exit.thread9, label %.lr.ph

.lr.ph:                                           ; preds = %2
  %5 = load ptr, ptr %1, align 8, !tbaa !15
  br label %6

6:                                                ; preds = %.lr.ph, %_ZN2cvL9mapSymbolEc.exit.thread
  %.0611 = phi i64 [ 0, %.lr.ph ], [ %12, %_ZN2cvL9mapSymbolEc.exit.thread ]
  %7 = getelementptr inbounds nuw i8, ptr %5, i64 %.0611
  %8 = load i8, ptr %7, align 1, !tbaa !57
  %9 = add i8 %8, -48
  %or.cond.i = icmp ult i8 %9, 10
  %10 = add i8 %8, -65
  %or.cond5.i = icmp ult i8 %10, 26
  %or.cond = or i1 %or.cond.i, %or.cond5.i
  br i1 %or.cond, label %_ZN2cvL9mapSymbolEc.exit.thread, label %11

11:                                               ; preds = %6
  switch i8 %8, label %_ZN2cvL9mapSymbolEc.exit.thread9 [
    i8 32, label %_ZN2cvL9mapSymbolEc.exit.thread
    i8 36, label %_ZN2cvL9mapSymbolEc.exit.thread
    i8 37, label %_ZN2cvL9mapSymbolEc.exit.thread
    i8 42, label %_ZN2cvL9mapSymbolEc.exit.thread
    i8 43, label %_ZN2cvL9mapSymbolEc.exit.thread
    i8 45, label %_ZN2cvL9mapSymbolEc.exit.thread
    i8 46, label %_ZN2cvL9mapSymbolEc.exit.thread
    i8 47, label %_ZN2cvL9mapSymbolEc.exit.thread
    i8 58, label %_ZN2cvL9mapSymbolEc.exit.thread
  ]

_ZN2cvL9mapSymbolEc.exit.thread:                  ; preds = %6, %11, %11, %11, %11, %11, %11, %11, %11, %11
  %12 = add nuw i64 %.0611, 1
  %exitcond.not = icmp eq i64 %12, %4
  br i1 %exitcond.not, label %_ZN2cvL9mapSymbolEc.exit.thread9, label %6, !llvm.loop !58

_ZN2cvL9mapSymbolEc.exit.thread9:                 ; preds = %_ZN2cvL9mapSymbolEc.exit.thread, %11, %2
  %switch = phi i1 [ true, %2 ], [ false, %11 ], [ true, %_ZN2cvL9mapSymbolEc.exit.thread ]
  ret i1 %switch
}